; Function Attrs: nofree nounwind memory(read, inaccessiblemem: none) uwtable
define dso_local signext i16 @ExecFindJunkAttribute(ptr noundef readonly captures(none) %0, ptr noundef readonly captures(none) %1) local_unnamed_addr #2 {
  %3 = getelementptr inbounds nuw i8, ptr %0, i64 8
  %4 = load ptr, ptr %3, align 8
  %.not.i = icmp eq ptr %4, null
  br i1 %.not.i, label %ExecFindJunkAttributeInTlist.exit, label %.lr.ph.i

.lr.ph.i:                                         ; preds = %2
  %5 = getelementptr inbounds nuw i8, ptr %4, i64 4
  %6 = load i32, ptr %5, align 4
  %7 = icmp sgt i32 %6, 0
  br i1 %7, label %.lr.ph35.i, label %ExecFindJunkAttributeInTlist.exit

.lr.ph35.i:                                       ; preds = %.lr.ph.i
  %8 = getelementptr inbounds nuw i8, ptr %4, i64 16
  %9 = load ptr, ptr %8, align 8
  %wide.trip.count.i = zext nneg i32 %6 to i64
  br label %10

10:                                               ; preds = %22, %.lr.ph35.i
  %indvars.iv.i = phi i64 [ 0, %.lr.ph35.i ], [ %indvars.iv.next.i, %22 ]
  %11 = getelementptr inbounds nuw %union.ListCell, ptr %9, i64 %indvars.iv.i
  %12 = load ptr, ptr %11, align 8
  %13 = getelementptr inbounds nuw i8, ptr %12, i64 42
  %14 = load i8, ptr %13, align 2, !range !4, !noundef !5
  %15 = trunc nuw i8 %14 to i1
  br i1 %15, label %16, label %22

16:                                               ; preds = %10
  %17 = getelementptr inbounds nuw i8, ptr %12, i64 24
  %18 = load ptr, ptr %17, align 8
  %.not20.i = icmp eq ptr %18, null
  br i1 %.not20.i, label %22, label %19

19:                                               ; preds = %16
  %20 = tail call i32 @strcmp(ptr noundef nonnull dereferenceable(1) %18, ptr noundef nonnull readonly dereferenceable(1) %1) #5
  %21 = icmp eq i32 %20, 0
  br i1 %21, label %.split.i, label %22

22:                                               ; preds = %19, %16, %10
  %indvars.iv.next.i = add nuw nsw i64 %indvars.iv.i, 1
  %exitcond.not.i = icmp eq i64 %indvars.iv.next.i, %wide.trip.count.i
  br i1 %exitcond.not.i, label %ExecFindJunkAttributeInTlist.exit, label %10

.split.i:                                         ; preds = %19
  %23 = getelementptr inbounds nuw i8, ptr %12, i64 16
  %24 = load i16, ptr %23, align 8
  br label %ExecFindJunkAttributeInTlist.exit

ExecFindJunkAttributeInTlist.exit:                ; preds = %22, %2, %.lr.ph.i, %.split.i
  %25 = phi i16 [ %24, %.split.i ], [ 0, %.lr.ph.i ], [ 0, %2 ], [ 0, %22 ]
  ret i16 %25
}